; Function Attrs: nounwind uwtable
define range(i32 0, 2) i32 @ipaddintoption_(ptr noundef readonly captures(none) %0, ptr noundef readonly captures(none) %1, ptr noundef readonly captures(none) %2, i32 noundef %3) local_unnamed_addr #0 {
  %5 = load ptr, ptr %0, align 8, !tbaa !23
  %6 = load i32, ptr %2, align 4, !tbaa !3
  %invariant.gep.i = getelementptr i8, ptr %1, i64 -1
  %7 = icmp sgt i32 %3, 0
  br i1 %7, label %.lr.ph.i, label %._crit_edge.i

.lr.ph.i:                                         ; preds = %4, %10
  %.014.i = phi i32 [ %11, %10 ], [ %3, %4 ]
  %8 = zext nneg i32 %.014.i to i64
  %gep.i = getelementptr i8, ptr %invariant.gep.i, i64 %8
  %9 = load i8, ptr %gep.i, align 1, !tbaa !24
  %.not.i = icmp eq i8 %9, 32
  br i1 %.not.i, label %10, label %._crit_edge.i

10:                                               ; preds = %.lr.ph.i
  %11 = add nsw i32 %.014.i, -1
  %12 = icmp sgt i32 %.014.i, 1
  br i1 %12, label %.lr.ph.i, label %._crit_edge.i, !llvm.loop !25

._crit_edge.i:                                    ; preds = %10, %.lr.ph.i, %4
  %.0.lcssa.i = phi i32 [ %3, %4 ], [ 0, %10 ], [ %.014.i, %.lr.ph.i ]
  %13 = add nsw i32 %.0.lcssa.i, 1
  %14 = sext i32 %13 to i64
  %15 = tail call noalias ptr @malloc(i64 noundef %14) #7
  %.not13.i = icmp eq ptr %15, null
  br i1 %.not13.i, label %f2cstr.exit, label %16

16:                                               ; preds = %._crit_edge.i
  %17 = sext i32 %.0.lcssa.i to i64
  tail call void @llvm.memcpy.p0.p0.i64(ptr nonnull align 1 %15, ptr readonly align 1 %1, i64 %17, i1 false)
  %18 = getelementptr inbounds i8, ptr %15, i64 %17
  store i8 0, ptr %18, align 1, !tbaa !24
  br label %f2cstr.exit

f2cstr.exit:                                      ; preds = %._crit_edge.i, %16
  %19 = getelementptr inbounds nuw i8, ptr %5, i64 64
  %20 = load ptr, ptr %19, align 8, !tbaa !7
  %21 = tail call zeroext i1 @AddIpoptIntOption(ptr noundef %20, ptr noundef %15, i32 noundef %6) #8
  tail call void @free(ptr noundef %15) #8
  %not. = xor i1 %21, true
  %22 = zext i1 %not. to i32
  ret i32 %22
}